; Function Attrs: null_pointer_is_valid sspstrong uwtable
define internal range(i32 -268435456, 268435456) i32 @dissect_RANfunctionID_PDU(ptr noundef %0, ptr noundef %1, ptr noundef %2, ptr readnone captures(none) %3) #2 {
  %5 = alloca i32, align 4
  %6 = alloca %struct._asn1_ctx_t, align 8
  call void @llvm.lifetime.start.p0(i64 208, ptr nonnull %6) #12
  call void @asn1_ctx_init(ptr noundef nonnull %6, i32 noundef 1, i1 noundef zeroext true, ptr noundef %1)
  %7 = load i32, ptr @hf_e2ap_RANfunctionID_PDU, align 4
  call void @llvm.lifetime.start.p0(i64 4, ptr nonnull %5) #12
  %8 = call i32 @dissect_per_constrained_integer(ptr noundef %0, i32 noundef 0, ptr noundef nonnull %6, ptr noundef %2, i32 noundef %7, i32 noundef 0, i32 noundef 4095, ptr noundef nonnull %5, i1 noundef zeroext false)
  %9 = getelementptr inbounds nuw i8, ptr %6, i64 16
  %10 = load ptr, ptr %9, align 8
  %11 = getelementptr inbounds nuw i8, ptr %10, i64 408
  %12 = load ptr, ptr %11, align 8
  %13 = load i32, ptr @proto_e2ap, align 4
  %14 = call ptr @p_get_proto_data(ptr noundef %12, ptr noundef %10, i32 noundef %13, i32 noundef 0)
  %.not.i.i = icmp eq ptr %14, null
  br i1 %.not.i.i, label %15, label %dissect_e2ap_RANfunctionID.exit

15:                                               ; preds = %4
  %16 = load ptr, ptr %11, align 8
  %17 = call noalias dereferenceable_or_null(48) ptr @wmem_alloc0(ptr noundef %16, i64 noundef 48) #10
  %18 = load ptr, ptr %11, align 8
  %19 = load i32, ptr @proto_e2ap, align 4
  call void @p_add_proto_data(ptr noundef %18, ptr noundef %10, i32 noundef %19, i32 noundef 0, ptr noundef %17)
  br label %dissect_e2ap_RANfunctionID.exit

dissect_e2ap_RANfunctionID.exit:                  ; preds = %4, %15
  %.0.i.i = phi ptr [ %14, %4 ], [ %17, %15 ]
  %20 = load i32, ptr %5, align 4
  %21 = getelementptr inbounds nuw i8, ptr %.0.i.i, i64 12
  store i32 %20, ptr %21, align 4
  call void @llvm.lifetime.end.p0(i64 4, ptr nonnull %5) #12
  %22 = add i32 %8, 7
  %23 = ashr i32 %22, 3
  call void @llvm.lifetime.end.p0(i64 208, ptr nonnull %6) #12
  ret i32 %23
}